; Function Attrs: nounwind uwtable
define internal ptr @math_trunc(ptr noundef readonly captures(none) %0, ptr noundef %1) #0 {
  %3 = getelementptr i8, ptr %1, i64 8
  %.val14 = load ptr, ptr %3, align 8, !tbaa !16
  %.not = icmp eq ptr %.val14, @PyFloat_Type
  br i1 %.not, label %4, label %9

4:                                                ; preds = %2
  %5 = load ptr, ptr getelementptr inbounds nuw (i8, ptr @PyFloat_Type, i64 96), align 8, !tbaa !53
  %6 = getelementptr inbounds nuw i8, ptr %5, i64 128
  %7 = load ptr, ptr %6, align 8, !tbaa !54
  %8 = tail call ptr %7(ptr noundef nonnull %1) #16
  br label %Py_DECREF.exit

9:                                                ; preds = %2
  %10 = getelementptr i8, ptr %0, i64 32
  %.val = load ptr, ptr %10, align 8, !tbaa !3
  %11 = getelementptr inbounds nuw i8, ptr %.val, i64 16
  %12 = load ptr, ptr %11, align 8, !tbaa !56
  %13 = tail call ptr @_PyObject_LookupSpecial(ptr noundef nonnull %1, ptr noundef %12) #16
  %14 = icmp eq ptr %13, null
  br i1 %14, label %15, label %22

15:                                               ; preds = %9
  %16 = tail call ptr @PyErr_Occurred() #16
  %.not12 = icmp eq ptr %16, null
  br i1 %.not12, label %17, label %Py_DECREF.exit

17:                                               ; preds = %15
  %18 = load ptr, ptr @PyExc_TypeError, align 8, !tbaa !12
  %.val13 = load ptr, ptr %3, align 8, !tbaa !16
  %19 = getelementptr inbounds nuw i8, ptr %.val13, i64 24
  %20 = load ptr, ptr %19, align 8, !tbaa !57
  %21 = tail call ptr (ptr, ptr, ...) @PyErr_Format(ptr noundef %18, ptr noundef nonnull @.str.84, ptr noundef %20) #16
  br label %Py_DECREF.exit

22:                                               ; preds = %9
  %23 = tail call ptr @_PyThreadState_GetCurrent() #16
  %24 = getelementptr i8, ptr %13, i64 8
  %.val.i.i.i = load ptr, ptr %24, align 8, !tbaa !16
  %25 = getelementptr i8, ptr %.val.i.i.i, i64 168
  %.val6.i.i.i = load i64, ptr %25, align 8, !tbaa !22
  %26 = and i64 %.val6.i.i.i, 2048
  %.not.i.i.i = icmp eq i64 %26, 0
  br i1 %.not.i.i.i, label %_PyVectorcall_FunctionInline.exit.thread.i.i, label %_PyVectorcall_FunctionInline.exit.i.i

_PyVectorcall_FunctionInline.exit.i.i:            ; preds = %22
  %27 = getelementptr inbounds nuw i8, ptr %.val.i.i.i, i64 56
  %28 = load i64, ptr %27, align 8, !tbaa !31
  %29 = getelementptr i8, ptr %13, i64 %28
  %.0.copyload.i.i.i = load ptr, ptr %29, align 1
  %30 = icmp eq ptr %.0.copyload.i.i.i, null
  br i1 %30, label %_PyVectorcall_FunctionInline.exit.thread.i.i, label %32

_PyVectorcall_FunctionInline.exit.thread.i.i:     ; preds = %_PyVectorcall_FunctionInline.exit.i.i, %22
  %31 = tail call ptr @_PyObject_MakeTpCall(ptr noundef %23, ptr noundef nonnull %13, ptr noundef null, i64 noundef 0, ptr noundef null) #16
  br label %_PyObject_CallNoArgs.exit

32:                                               ; preds = %_PyVectorcall_FunctionInline.exit.i.i
  %33 = tail call ptr %.0.copyload.i.i.i(ptr noundef nonnull %13, ptr noundef null, i64 noundef 0, ptr noundef null) #16
  %34 = tail call ptr @_Py_CheckFunctionResult(ptr noundef %23, ptr noundef nonnull %13, ptr noundef %33, ptr noundef null) #16
  br label %_PyObject_CallNoArgs.exit

_PyObject_CallNoArgs.exit:                        ; preds = %_PyVectorcall_FunctionInline.exit.thread.i.i, %32
  %.0.i.i = phi ptr [ %31, %_PyVectorcall_FunctionInline.exit.thread.i.i ], [ %34, %32 ]
  %35 = load i32, ptr %13, align 8, !tbaa !13
  %.not.i = icmp sgt i32 %35, -1
  br i1 %.not.i, label %36, label %Py_DECREF.exit

36:                                               ; preds = %_PyObject_CallNoArgs.exit
  %37 = add nsw i32 %35, -1
  store i32 %37, ptr %13, align 8, !tbaa !13
  %38 = icmp eq i32 %37, 0
  br i1 %38, label %39, label %Py_DECREF.exit

39:                                               ; preds = %36
  tail call void @_Py_Dealloc(ptr noundef nonnull %13) #16
  br label %Py_DECREF.exit

Py_DECREF.exit:                                   ; preds = %39, %36, %_PyObject_CallNoArgs.exit, %17, %15, %4
  %.0 = phi ptr [ %8, %4 ], [ null, %17 ], [ null, %15 ], [ %.0.i.i, %_PyObject_CallNoArgs.exit ], [ %.0.i.i, %36 ], [ %.0.i.i, %39 ]
  ret ptr %.0
}